target datalayout = "e-m:e-p270:32:32-p271:32:32-p272:64:64-i64:64-i128:128-f80:128-n8:16:32:64-S128"
target triple = "x86_64-pc-linux-gnu"

%class.ZRootStatSubPhase = type { %class.ZStatSubPhase, %class.ZStatSubPhase }
%class.ZStatSubPhase = type { %class.ZStatPhase }
%class.ZStatPhase = type { ptr, %class.ZStatSampler }
%class.ZStatSampler = type { %class.ZStatIterableValue, ptr }
%class.ZStatIterableValue = type { %class.ZStatValue, ptr }
%class.ZStatValue = type { ptr, ptr, i32, i32 }
%class.ZRootStatTimer = type { ptr, %class.TimeInstant }
%class.TimeInstant = type { %class.CompositeCounterRepresentation }
%class.CompositeCounterRepresentation = type { %class.Representation }
%class.Representation = type { %class.PairRep }
%class.PairRep = type { i64, i64 }
%class.ZCLDsIteratorAll = type { i8 }

@_ZL44ZSubPhaseConcurrentRootsClassLoaderDataGraph = internal global %class.ZRootStatSubPhase zeroinitializer, align 8

; Function Attrs: mustprogress nounwind uwtable
define linkonce_odr hidden void @_ZN7PairRepIllEC2Ev(ptr noundef nonnull align 8 dereferenceable(16) %0) unnamed_addr #1 comdat align 2 {
  %2 = alloca ptr, align 8
  store ptr %0, ptr %2, align 8
  %3 = load ptr, ptr %2, align 8
  %4 = getelementptr inbounds %class.PairRep, ptr %3, i32 0, i32 0
  store i64 0, ptr %4, align 8
  %5 = getelementptr inbounds %class.PairRep, ptr %3, i32 0, i32 1
  store i64 0, ptr %5, align 8
  ret void
}

; Function Attrs: mustprogress nounwind uwtable
define linkonce_odr hidden void @_ZN14RepresentationI29CompositeElapsedCounterSourceEC2Ev(ptr noundef nonnull align 8 dereferenceable(16) %0) unnamed_addr #1 comdat align 2 {
  %2 = alloca ptr, align 8
  store ptr %0, ptr %2, align 8
  %3 = load ptr, ptr %2, align 8
  %4 = getelementptr inbounds %class.Representation, ptr %3, i32 0, i32 0
  call void @_ZN7PairRepIllEC2Ev(ptr noundef nonnull align 8 dereferenceable(16) %4)
  ret void
}

; Function Attrs: mustprogress nounwind uwtable
define linkonce_odr hidden void @_ZN30CompositeCounterRepresentationI29CompositeElapsedCounterSourceEC2Ev(ptr noundef nonnull align 8 dereferenceable(16) %0) unnamed_addr #1 comdat align 2 {
  %2 = alloca ptr, align 8
  store ptr %0, ptr %2, align 8
  %3 = load ptr, ptr %2, align 8
  call void @_ZN14RepresentationI29CompositeElapsedCounterSourceEC2Ev(ptr noundef nonnull align 8 dereferenceable(16) %3)
  ret void
}

; Function Attrs: mustprogress nounwind uwtable
define linkonce_odr hidden void @_ZN11TimeInstantI30CompositeCounterRepresentation29CompositeElapsedCounterSourceE5stampEv(ptr noundef nonnull align 8 dereferenceable(16) %0) #1 comdat align 2 {
  %2 = alloca ptr, align 8
  %3 = alloca %class.PairRep, align 8
  store ptr %0, ptr %2, align 8
  %4 = load ptr, ptr %2, align 8
  %5 = call { i64, i64 } @_ZN29CompositeElapsedCounterSource3nowEv()
  %6 = getelementptr inbounds { i64, i64 }, ptr %3, i32 0, i32 0
  %7 = extractvalue { i64, i64 } %5, 0
  store i64 %7, ptr %6, align 8
  %8 = getelementptr inbounds { i64, i64 }, ptr %3, i32 0, i32 1
  %9 = extractvalue { i64, i64 } %5, 1
  store i64 %9, ptr %8, align 8
  %10 = getelementptr inbounds %class.Representation, ptr %4, i32 0, i32 0
  call void @llvm.memcpy.p0.p0.i64(ptr align 8 %10, ptr align 8 %3, i64 16, i1 false)
  ret void
}

; Function Attrs: mustprogress nounwind uwtable
define linkonce_odr hidden void @_ZN11TimeInstantI30CompositeCounterRepresentation29CompositeElapsedCounterSourceEC2Ev(ptr noundef nonnull align 8 dereferenceable(16) %0) unnamed_addr #1 comdat align 2 {
  %2 = alloca ptr, align 8
  store ptr %0, ptr %2, align 8
  %3 = load ptr, ptr %2, align 8
  call void @_ZN30CompositeCounterRepresentationI29CompositeElapsedCounterSourceEC2Ev(ptr noundef nonnull align 8 dereferenceable(16) %3)
  ret void
}

; Function Attrs: mustprogress nounwind uwtable
define linkonce_odr hidden noundef nonnull align 8 dereferenceable(48) ptr @_ZNK17ZRootStatSubPhase3oldEv(ptr noundef nonnull align 8 dereferenceable(96) %0) #1 comdat align 2 {
  %2 = alloca ptr, align 8
  store ptr %0, ptr %2, align 8
  %3 = load ptr, ptr %2, align 8
  %4 = getelementptr inbounds %class.ZRootStatSubPhase, ptr %3, i32 0, i32 1
  ret ptr %4
}

; Function Attrs: mustprogress nounwind uwtable
define linkonce_odr hidden noundef nonnull align 8 dereferenceable(48) ptr @_ZNK17ZRootStatSubPhase5youngEv(ptr noundef nonnull align 8 dereferenceable(96) %0) #1 comdat align 2 {
  %2 = alloca ptr, align 8
  store ptr %0, ptr %2, align 8
  %3 = load ptr, ptr %2, align 8
  %4 = getelementptr inbounds %class.ZRootStatSubPhase, ptr %3, i32 0, i32 0
  ret ptr %4
}

; Function Attrs: mustprogress nounwind uwtable
define linkonce_odr hidden { i64, i64 } @_ZN11TimeInstantI30CompositeCounterRepresentation29CompositeElapsedCounterSourceE3nowEv() #1 comdat align 2 {
  %1 = alloca %class.TimeInstant, align 8
  call void @_ZN11TimeInstantI30CompositeCounterRepresentation29CompositeElapsedCounterSourceEC2Ev(ptr noundef nonnull align 8 dereferenceable(16) %1)
  call void @_ZN11TimeInstantI30CompositeCounterRepresentation29CompositeElapsedCounterSourceE5stampEv(ptr noundef nonnull align 8 dereferenceable(16) %1)
  %2 = getelementptr inbounds %class.TimeInstant, ptr %1, i32 0, i32 0
  %3 = getelementptr inbounds %class.CompositeCounterRepresentation, ptr %2, i32 0, i32 0
  %4 = getelementptr inbounds %class.Representation, ptr %3, i32 0, i32 0
  %5 = load { i64, i64 }, ptr %4, align 8
  ret { i64, i64 } %5
}

; Function Attrs: mustprogress nounwind uwtable
define linkonce_odr hidden void @_ZN14ZRootStatTimerC2EPK10ZStatPhase(ptr noundef nonnull align 8 dereferenceable(24) %0, ptr noundef %1) unnamed_addr #1 comdat align 2 {
  %3 = alloca ptr, align 8
  %4 = alloca ptr, align 8
  store ptr %0, ptr %3, align 8
  store ptr %1, ptr %4, align 8
  %5 = load ptr, ptr %3, align 8
  %6 = getelementptr inbounds %class.ZRootStatTimer, ptr %5, i32 0, i32 0
  %7 = load ptr, ptr %4, align 8
  store ptr %7, ptr %6, align 8
  %8 = getelementptr inbounds %class.ZRootStatTimer, ptr %5, i32 0, i32 1
  %9 = call { i64, i64 } @_ZN11TimeInstantI30CompositeCounterRepresentation29CompositeElapsedCounterSourceE3nowEv()
  %10 = getelementptr inbounds %class.TimeInstant, ptr %8, i32 0, i32 0
  %11 = getelementptr inbounds %class.CompositeCounterRepresentation, ptr %10, i32 0, i32 0
  %12 = getelementptr inbounds %class.Representation, ptr %11, i32 0, i32 0
  %13 = getelementptr inbounds { i64, i64 }, ptr %12, i32 0, i32 0
  %14 = extractvalue { i64, i64 } %9, 0
  store i64 %14, ptr %13, align 8
  %15 = getelementptr inbounds { i64, i64 }, ptr %12, i32 0, i32 1
  %16 = extractvalue { i64, i64 } %9, 1
  store i64 %16, ptr %15, align 8
  %17 = load ptr, ptr %4, align 8
  %18 = icmp ne ptr %17, null
  br i1 %18, label %19, label %26

19:                                               ; preds = %2
  %20 = getelementptr inbounds %class.ZRootStatTimer, ptr %5, i32 0, i32 0
  %21 = load ptr, ptr %20, align 8
  %22 = getelementptr inbounds %class.ZRootStatTimer, ptr %5, i32 0, i32 1
  %23 = load ptr, ptr %21, align 8
  %24 = getelementptr inbounds ptr, ptr %23, i64 0
  %25 = load ptr, ptr %24, align 8
  call void %25(ptr noundef nonnull align 8 dereferenceable(48) %21, ptr noundef null, ptr noundef nonnull align 8 dereferenceable(16) %22)
  br label %26

26:                                               ; preds = %19, %2
  ret void
}

; Function Attrs: mustprogress nounwind uwtable
define linkonce_odr hidden noundef ptr @_ZN14ZRootStatTimer18calculate_subphaseE21ZGenerationIdOptionalRK17ZRootStatSubPhase(i8 noundef zeroext %0, ptr noundef nonnull align 8 dereferenceable(96) %1) #1 comdat align 2 {
  %3 = alloca ptr, align 8
  %4 = alloca i8, align 1
  %5 = alloca ptr, align 8
  store i8 %0, ptr %4, align 1
  store ptr %1, ptr %5, align 8
  %6 = load i8, ptr %4, align 1
  switch i8 %6, label %13 [
    i8 0, label %7
    i8 1, label %10
  ]

7:                                                ; preds = %2
  %8 = load ptr, ptr %5, align 8
  %9 = call noundef nonnull align 8 dereferenceable(48) ptr @_ZNK17ZRootStatSubPhase5youngEv(ptr noundef nonnull align 8 dereferenceable(96) %8)
  store ptr %9, ptr %3, align 8
  br label %14

10:                                               ; preds = %2
  %11 = load ptr, ptr %5, align 8
  %12 = call noundef nonnull align 8 dereferenceable(48) ptr @_ZNK17ZRootStatSubPhase3oldEv(ptr noundef nonnull align 8 dereferenceable(96) %11)
  store ptr %12, ptr %3, align 8
  br label %14

13:                                               ; preds = %2
  store ptr null, ptr %3, align 8
  br label %14

14:                                               ; preds = %13, %10, %7
  %15 = load ptr, ptr %3, align 8
  ret ptr %15
}

; Function Attrs: mustprogress nounwind uwtable
define linkonce_odr hidden void @_ZN14ZRootStatTimerD2Ev(ptr noundef nonnull align 8 dereferenceable(24) %0) unnamed_addr #1 comdat align 2 {
  %2 = alloca ptr, align 8
  %3 = alloca %class.TimeInstant, align 8
  store ptr %0, ptr %2, align 8
  %4 = load ptr, ptr %2, align 8
  %5 = getelementptr inbounds %class.ZRootStatTimer, ptr %4, i32 0, i32 0
  %6 = load ptr, ptr %5, align 8
  %7 = icmp ne ptr %6, null
  br i1 %7, label %8, label %23

8:                                                ; preds = %1
  %9 = call { i64, i64 } @_ZN11TimeInstantI30CompositeCounterRepresentation29CompositeElapsedCounterSourceE3nowEv()
  %10 = getelementptr inbounds %class.TimeInstant, ptr %3, i32 0, i32 0
  %11 = getelementptr inbounds %class.CompositeCounterRepresentation, ptr %10, i32 0, i32 0
  %12 = getelementptr inbounds %class.Representation, ptr %11, i32 0, i32 0
  %13 = getelementptr inbounds { i64, i64 }, ptr %12, i32 0, i32 0
  %14 = extractvalue { i64, i64 } %9, 0
  store i64 %14, ptr %13, align 8
  %15 = getelementptr inbounds { i64, i64 }, ptr %12, i32 0, i32 1
  %16 = extractvalue { i64, i64 } %9, 1
  store i64 %16, ptr %15, align 8
  %17 = getelementptr inbounds %class.ZRootStatTimer, ptr %4, i32 0, i32 0
  %18 = load ptr, ptr %17, align 8
  %19 = getelementptr inbounds %class.ZRootStatTimer, ptr %4, i32 0, i32 1
  %20 = load ptr, ptr %18, align 8
  %21 = getelementptr inbounds ptr, ptr %20, i64 1
  %22 = load ptr, ptr %21, align 8
  call void %22(ptr noundef nonnull align 8 dereferenceable(48) %18, ptr noundef null, ptr noundef nonnull align 8 dereferenceable(16) %19, ptr noundef nonnull align 8 dereferenceable(16) %3)
  br label %23

23:                                               ; preds = %8, %1
  ret void
}

; Function Attrs: mustprogress nounwind uwtable
define linkonce_odr hidden void @_ZN14ZRootStatTimerC2ERK17ZRootStatSubPhase21ZGenerationIdOptional(ptr noundef nonnull align 8 dereferenceable(24) %0, ptr noundef nonnull align 8 dereferenceable(96) %1, i8 noundef zeroext %2) unnamed_addr #1 comdat align 2 {
  %4 = alloca ptr, align 8
  %5 = alloca ptr, align 8
  %6 = alloca i8, align 1
  store ptr %0, ptr %4, align 8
  store ptr %1, ptr %5, align 8
  store i8 %2, ptr %6, align 1
  %7 = load ptr, ptr %4, align 8
  %8 = load i8, ptr %6, align 1
  %9 = load ptr, ptr %5, align 8
  %10 = call noundef ptr @_ZN14ZRootStatTimer18calculate_subphaseE21ZGenerationIdOptionalRK17ZRootStatSubPhase(i8 noundef zeroext %8, ptr noundef nonnull align 8 dereferenceable(96) %9)
  call void @_ZN14ZRootStatTimerC2EPK10ZStatPhase(ptr noundef nonnull align 8 dereferenceable(24) %7, ptr noundef %10)
  ret void
}

; Function Attrs: mustprogress nounwind uwtable
define hidden void @_ZN16ZCLDsIteratorAll5applyEP10CLDClosure(ptr noundef nonnull align 1 dereferenceable(1) %0, ptr noundef %1) #1 align 2 {
  %3 = alloca ptr, align 8
  %4 = alloca ptr, align 8
  %5 = alloca %class.ZRootStatTimer, align 8
  store ptr %0, ptr %3, align 8
  store ptr %1, ptr %4, align 8
  %6 = load ptr, ptr %3, align 8
  %7 = getelementptr inbounds %class.ZCLDsIteratorAll, ptr %6, i32 0, i32 0
  %8 = load i8, ptr %7, align 1
  call void @_ZN14ZRootStatTimerC2ERK17ZRootStatSubPhase21ZGenerationIdOptional(ptr noundef nonnull align 8 dereferenceable(24) %5, ptr noundef nonnull align 8 dereferenceable(96) @_ZL44ZSubPhaseConcurrentRootsClassLoaderDataGraph, i8 noundef zeroext %8)
  %9 = load ptr, ptr %4, align 8
  call void @_ZN20ClassLoaderDataGraph6cld_doEP10CLDClosure(ptr noundef %9)
  call void @_ZN14ZRootStatTimerD2Ev(ptr noundef nonnull align 8 dereferenceable(24) %5) #7
  ret void
}