; Function Attrs: mustprogress nounwind uwtable
define hidden void @_ZN16ZCLDsIteratorAll5applyEP10CLDClosure(ptr nocapture noundef nonnull readonly align 1 dereferenceable(1) %0, ptr noundef %1) local_unnamed_addr #0 align 2 {
_ZN14ZRootStatTimer18calculate_subphaseE21ZGenerationIdOptionalRK17ZRootStatSubPhase.exit.i:
  %2 = alloca %class.TimeInstant, align 8
  %3 = alloca %class.ZRootStatTimer, align 8
  %4 = load i8, ptr %0, align 1
  %switch.selectcmp = icmp eq i8 %4, 1
  %switch.select = select i1 %switch.selectcmp, ptr getelementptr inbounds (i8, ptr @_ZL44ZSubPhaseConcurrentRootsClassLoaderDataGraph, i64 48), ptr null
  %switch.selectcmp2 = icmp eq i8 %4, 0
  %switch.select3 = select i1 %switch.selectcmp2, ptr @_ZL44ZSubPhaseConcurrentRootsClassLoaderDataGraph, ptr %switch.select
  store ptr %switch.select3, ptr %3, align 8
  %5 = getelementptr inbounds i8, ptr %3, i64 8
  %6 = tail call { i64, i64 } @_ZN29CompositeElapsedCounterSource3nowEv() #7
  %7 = extractvalue { i64, i64 } %6, 0
  store i64 %7, ptr %5, align 8
  %8 = getelementptr inbounds i8, ptr %3, i64 16
  %9 = extractvalue { i64, i64 } %6, 1
  store i64 %9, ptr %8, align 8
  %.not.i.i = icmp eq ptr %switch.select3, null
  br i1 %.not.i.i, label %_ZN14ZRootStatTimerC2ERK17ZRootStatSubPhase21ZGenerationIdOptional.exit, label %10

10:                                               ; preds = %_ZN14ZRootStatTimer18calculate_subphaseE21ZGenerationIdOptionalRK17ZRootStatSubPhase.exit.i
  %11 = load ptr, ptr %switch.select3, align 8
  %12 = load ptr, ptr %11, align 8
  call void %12(ptr noundef nonnull align 8 dereferenceable(48) %switch.select3, ptr noundef null, ptr noundef nonnull align 8 dereferenceable(16) %5) #7
  br label %_ZN14ZRootStatTimerC2ERK17ZRootStatSubPhase21ZGenerationIdOptional.exit

_ZN14ZRootStatTimerC2ERK17ZRootStatSubPhase21ZGenerationIdOptional.exit: ; preds = %_ZN14ZRootStatTimer18calculate_subphaseE21ZGenerationIdOptionalRK17ZRootStatSubPhase.exit.i, %10
  call void @_ZN20ClassLoaderDataGraph6cld_doEP10CLDClosure(ptr noundef %1) #7
  call void @llvm.lifetime.start.p0(i64 16, ptr nonnull %2)
  %13 = load ptr, ptr %3, align 8
  %.not.i = icmp eq ptr %13, null
  br i1 %.not.i, label %_ZN14ZRootStatTimerD2Ev.exit, label %14

14:                                               ; preds = %_ZN14ZRootStatTimerC2ERK17ZRootStatSubPhase21ZGenerationIdOptional.exit
  %15 = call { i64, i64 } @_ZN29CompositeElapsedCounterSource3nowEv() #7
  %16 = extractvalue { i64, i64 } %15, 0
  store i64 %16, ptr %2, align 8
  %17 = getelementptr inbounds i8, ptr %2, i64 8
  %18 = extractvalue { i64, i64 } %15, 1
  store i64 %18, ptr %17, align 8
  %19 = load ptr, ptr %3, align 8
  %20 = load ptr, ptr %19, align 8
  %21 = getelementptr inbounds i8, ptr %20, i64 8
  %22 = load ptr, ptr %21, align 8
  call void %22(ptr noundef nonnull align 8 dereferenceable(48) %19, ptr noundef null, ptr noundef nonnull align 8 dereferenceable(16) %5, ptr noundef nonnull align 8 dereferenceable(16) %2) #7
  br label %_ZN14ZRootStatTimerD2Ev.exit

_ZN14ZRootStatTimerD2Ev.exit:                     ; preds = %_ZN14ZRootStatTimerC2ERK17ZRootStatSubPhase21ZGenerationIdOptional.exit, %14
  call void @llvm.lifetime.end.p0(i64 16, ptr nonnull %2)
  ret void
}